target datalayout = "e-m:e-p270:32:32-p271:32:32-p272:64:64-i64:64-i128:128-f80:128-n8:16:32:64-S128"
target triple = "x86_64-pc-linux-gnu"

%"class.cv::videostab::FastMarchingMethod" = type <{ float, [4 x i8], %"class.cv::Mat_", %"class.cv::Mat_.0", %"class.cv::Mat_.1", %"class.std::vector", i32, [4 x i8] }>
%"class.cv::Mat_" = type { %"class.cv::Mat" }
%"class.cv::Mat" = type { i32, i32, i32, i32, ptr, ptr, ptr, ptr, ptr, ptr, %"struct.cv::MatSize", %"struct.cv::MatStep" }
%"struct.cv::MatSize" = type { ptr }
%"struct.cv::MatStep" = type { ptr, [2 x i64] }
%"class.cv::Mat_.0" = type { %"class.cv::Mat" }
%"class.cv::Mat_.1" = type { %"class.cv::Mat" }
%"class.std::vector" = type { %"struct.std::_Vector_base" }
%"struct.std::_Vector_base" = type { %"struct.std::_Vector_base<cv::videostab::FastMarchingMethod::DXY, std::allocator<cv::videostab::FastMarchingMethod::DXY>>::_Vector_impl" }
%"struct.std::_Vector_base<cv::videostab::FastMarchingMethod::DXY, std::allocator<cv::videostab::FastMarchingMethod::DXY>>::_Vector_impl" = type { %"struct.std::_Vector_base<cv::videostab::FastMarchingMethod::DXY, std::allocator<cv::videostab::FastMarchingMethod::DXY>>::_Vector_impl_data" }
%"struct.std::_Vector_base<cv::videostab::FastMarchingMethod::DXY, std::allocator<cv::videostab::FastMarchingMethod::DXY>>::_Vector_impl_data" = type { ptr, ptr, ptr }
%"struct.cv::videostab::FastMarchingMethod::DXY" = type { float, i32, i32 }

; Function Attrs: inlinehint mustprogress nounwind uwtable
define linkonce_odr hidden noundef nonnull align 4 dereferenceable(4) ptr @_ZN2cv4Mat_IiEclEii(ptr noundef nonnull align 8 dereferenceable(96) %0, i32 noundef %1, i32 noundef %2) #6 comdat align 2 {
  %4 = alloca ptr, align 8
  %5 = alloca i32, align 4
  %6 = alloca i32, align 4
  store ptr %0, ptr %4, align 8, !tbaa !56
  store i32 %1, ptr %5, align 4, !tbaa !8
  store i32 %2, ptr %6, align 4, !tbaa !8
  %7 = load ptr, ptr %4, align 8
  %8 = getelementptr inbounds nuw %"class.cv::Mat", ptr %7, i32 0, i32 4
  %9 = load ptr, ptr %8, align 8, !tbaa !35
  %10 = getelementptr inbounds nuw %"class.cv::Mat", ptr %7, i32 0, i32 11
  %11 = getelementptr inbounds nuw %"struct.cv::MatStep", ptr %10, i32 0, i32 0
  %12 = load ptr, ptr %11, align 8, !tbaa !36
  %13 = getelementptr inbounds i64, ptr %12, i64 0
  %14 = load i64, ptr %13, align 8, !tbaa !37
  %15 = load i32, ptr %5, align 4, !tbaa !8
  %16 = sext i32 %15 to i64
  %17 = mul i64 %14, %16
  %18 = getelementptr inbounds nuw i8, ptr %9, i64 %17
  %19 = load i32, ptr %6, align 4, !tbaa !8
  %20 = sext i32 %19 to i64
  %21 = getelementptr inbounds i32, ptr %18, i64 %20
  ret ptr %21
}

; Function Attrs: inlinehint mustprogress nounwind uwtable
define linkonce_odr void @_ZSt4swapIN2cv9videostab18FastMarchingMethod3DXYEENSt9enable_ifIXsr6__and_ISt6__not_ISt15__is_tuple_likeIT_EESt21is_move_constructibleIS7_ESt18is_move_assignableIS7_EEE5valueEvE4typeERS7_SG_(ptr noundef nonnull align 4 dereferenceable(12) %0, ptr noundef nonnull align 4 dereferenceable(12) %1) #6 comdat {
  %3 = alloca ptr, align 8
  %4 = alloca ptr, align 8
  %5 = alloca %"struct.cv::videostab::FastMarchingMethod::DXY", align 4
  store ptr %0, ptr %3, align 8, !tbaa !46
  store ptr %1, ptr %4, align 8, !tbaa !46
  call void @llvm.lifetime.start.p0(i64 12, ptr %5) #3
  %6 = load ptr, ptr %3, align 8, !tbaa !46
  call void @llvm.memcpy.p0.p0.i64(ptr align 4 %5, ptr align 4 %6, i64 12, i1 false), !tbaa.struct !52
  %7 = load ptr, ptr %4, align 8, !tbaa !46
  %8 = load ptr, ptr %3, align 8, !tbaa !46
  call void @llvm.memcpy.p0.p0.i64(ptr align 4 %8, ptr align 4 %7, i64 12, i1 false), !tbaa.struct !52
  %9 = load ptr, ptr %4, align 8, !tbaa !46
  call void @llvm.memcpy.p0.p0.i64(ptr align 4 %9, ptr align 4 %5, i64 12, i1 false), !tbaa.struct !52
  call void @llvm.lifetime.end.p0(i64 12, ptr %5) #3
  ret void
}

; Function Attrs: inlinehint mustprogress nounwind uwtable
define linkonce_odr void @_ZSt4swapIiENSt9enable_ifIXsr6__and_ISt6__not_ISt15__is_tuple_likeIT_EESt21is_move_constructibleIS3_ESt18is_move_assignableIS3_EEE5valueEvE4typeERS3_SC_(ptr noundef nonnull align 4 dereferenceable(4) %0, ptr noundef nonnull align 4 dereferenceable(4) %1) #6 comdat {
  %3 = alloca ptr, align 8
  %4 = alloca ptr, align 8
  %5 = alloca i32, align 4
  store ptr %0, ptr %3, align 8, !tbaa !49
  store ptr %1, ptr %4, align 8, !tbaa !49
  call void @llvm.lifetime.start.p0(i64 4, ptr %5) #3
  %6 = load ptr, ptr %3, align 8, !tbaa !49
  %7 = load i32, ptr %6, align 4, !tbaa !8
  store i32 %7, ptr %5, align 4, !tbaa !8
  %8 = load ptr, ptr %4, align 8, !tbaa !49
  %9 = load i32, ptr %8, align 4, !tbaa !8
  %10 = load ptr, ptr %3, align 8, !tbaa !49
  store i32 %9, ptr %10, align 4, !tbaa !8
  %11 = load i32, ptr %5, align 4, !tbaa !8
  %12 = load ptr, ptr %4, align 8, !tbaa !49
  store i32 %11, ptr %12, align 4, !tbaa !8
  call void @llvm.lifetime.end.p0(i64 4, ptr %5) #3
  ret void
}

; Function Attrs: mustprogress uwtable
define linkonce_odr hidden noundef nonnull align 4 dereferenceable(4) ptr @_ZN2cv9videostab18FastMarchingMethod7indexOfERKNS1_3DXYE(ptr noundef nonnull align 8 dereferenceable(324) %0, ptr noundef nonnull align 4 dereferenceable(12) %1) #4 comdat align 2 {
  %3 = alloca ptr, align 8
  %4 = alloca ptr, align 8
  store ptr %0, ptr %3, align 8, !tbaa !3
  store ptr %1, ptr %4, align 8, !tbaa !46
  %5 = load ptr, ptr %3, align 8
  %6 = getelementptr inbounds nuw %"class.cv::videostab::FastMarchingMethod", ptr %5, i32 0, i32 4
  %7 = load ptr, ptr %4, align 8, !tbaa !46
  %8 = getelementptr inbounds nuw %"struct.cv::videostab::FastMarchingMethod::DXY", ptr %7, i32 0, i32 2
  %9 = load i32, ptr %8, align 4, !tbaa !50
  %10 = load ptr, ptr %4, align 8, !tbaa !46
  %11 = getelementptr inbounds nuw %"struct.cv::videostab::FastMarchingMethod::DXY", ptr %10, i32 0, i32 1
  %12 = load i32, ptr %11, align 4, !tbaa !51
  %13 = call noundef nonnull align 4 dereferenceable(4) ptr @_ZN2cv4Mat_IiEclEii(ptr noundef nonnull align 8 dereferenceable(96) %6, i32 noundef %9, i32 noundef %12)
  ret ptr %13
}

; Function Attrs: mustprogress nounwind uwtable
define linkonce_odr hidden noundef zeroext i1 @_ZNK2cv9videostab18FastMarchingMethod3DXYltERKS2_(ptr noundef nonnull align 4 dereferenceable(12) %0, ptr noundef nonnull align 4 dereferenceable(12) %1) #7 comdat align 2 {
  %3 = alloca ptr, align 8
  %4 = alloca ptr, align 8
  store ptr %0, ptr %3, align 8, !tbaa !46
  store ptr %1, ptr %4, align 8, !tbaa !46
  %5 = load ptr, ptr %3, align 8
  %6 = getelementptr inbounds nuw %"struct.cv::videostab::FastMarchingMethod::DXY", ptr %5, i32 0, i32 0
  %7 = load float, ptr %6, align 4, !tbaa !47
  %8 = load ptr, ptr %4, align 8, !tbaa !46
  %9 = getelementptr inbounds nuw %"struct.cv::videostab::FastMarchingMethod::DXY", ptr %8, i32 0, i32 0
  %10 = load float, ptr %9, align 4, !tbaa !47
  %11 = fcmp olt float %7, %10
  ret i1 %11
}

; Function Attrs: mustprogress nounwind uwtable
define linkonce_odr hidden noundef nonnull align 4 dereferenceable(12) ptr @_ZNSt6vectorIN2cv9videostab18FastMarchingMethod3DXYESaIS3_EEixEm(ptr noundef nonnull align 8 dereferenceable(24) %0, i64 noundef %1) #7 comdat align 2 {
  %3 = alloca ptr, align 8
  %4 = alloca i64, align 8
  store ptr %0, ptr %3, align 8, !tbaa !43
  store i64 %1, ptr %4, align 8, !tbaa !37
  %5 = load ptr, ptr %3, align 8
  %6 = getelementptr inbounds nuw %"struct.std::_Vector_base", ptr %5, i32 0, i32 0
  %7 = getelementptr inbounds nuw %"struct.std::_Vector_base<cv::videostab::FastMarchingMethod::DXY, std::allocator<cv::videostab::FastMarchingMethod::DXY>>::_Vector_impl_data", ptr %6, i32 0, i32 0
  %8 = load ptr, ptr %7, align 8, !tbaa !45
  %9 = load i64, ptr %4, align 8, !tbaa !37
  %10 = getelementptr inbounds nuw %"struct.cv::videostab::FastMarchingMethod::DXY", ptr %8, i64 %9
  ret ptr %10
}

; Function Attrs: mustprogress uwtable
define void @_ZN2cv9videostab18FastMarchingMethod6heapUpEi(ptr noundef nonnull align 8 dereferenceable(324) %0, i32 noundef %1) #4 align 2 {
  %3 = alloca ptr, align 8
  %4 = alloca i32, align 4
  %5 = alloca i32, align 4
  store ptr %0, ptr %3, align 8, !tbaa !3
  store i32 %1, ptr %4, align 4, !tbaa !8
  %6 = load ptr, ptr %3, align 8
  call void @llvm.lifetime.start.p0(i64 4, ptr %5) #3
  %7 = load i32, ptr %4, align 4, !tbaa !8
  %8 = sub nsw i32 %7, 1
  %9 = sdiv i32 %8, 2
  store i32 %9, ptr %5, align 4, !tbaa !8
  br label %10

10:                                               ; preds = %25, %2
  %11 = load i32, ptr %4, align 4, !tbaa !8
  %12 = icmp sgt i32 %11, 0
  br i1 %12, label %13, label %23

13:                                               ; preds = %10
  %14 = getelementptr inbounds nuw %"class.cv::videostab::FastMarchingMethod", ptr %6, i32 0, i32 5
  %15 = load i32, ptr %4, align 4, !tbaa !8
  %16 = sext i32 %15 to i64
  %17 = call noundef nonnull align 4 dereferenceable(12) ptr @_ZNSt6vectorIN2cv9videostab18FastMarchingMethod3DXYESaIS3_EEixEm(ptr noundef nonnull align 8 dereferenceable(24) %14, i64 noundef %16) #3
  %18 = getelementptr inbounds nuw %"class.cv::videostab::FastMarchingMethod", ptr %6, i32 0, i32 5
  %19 = load i32, ptr %5, align 4, !tbaa !8
  %20 = sext i32 %19 to i64
  %21 = call noundef nonnull align 4 dereferenceable(12) ptr @_ZNSt6vectorIN2cv9videostab18FastMarchingMethod3DXYESaIS3_EEixEm(ptr noundef nonnull align 8 dereferenceable(24) %18, i64 noundef %20) #3
  %22 = call noundef zeroext i1 @_ZNK2cv9videostab18FastMarchingMethod3DXYltERKS2_(ptr noundef nonnull align 4 dereferenceable(12) %17, ptr noundef nonnull align 4 dereferenceable(12) %21)
  br label %23

23:                                               ; preds = %13, %10
  %24 = phi i1 [ false, %10 ], [ %22, %13 ]
  br i1 %24, label %25, label %48

25:                                               ; preds = %23
  %26 = getelementptr inbounds nuw %"class.cv::videostab::FastMarchingMethod", ptr %6, i32 0, i32 5
  %27 = load i32, ptr %5, align 4, !tbaa !8
  %28 = sext i32 %27 to i64
  %29 = call noundef nonnull align 4 dereferenceable(12) ptr @_ZNSt6vectorIN2cv9videostab18FastMarchingMethod3DXYESaIS3_EEixEm(ptr noundef nonnull align 8 dereferenceable(24) %26, i64 noundef %28) #3
  %30 = call noundef nonnull align 4 dereferenceable(4) ptr @_ZN2cv9videostab18FastMarchingMethod7indexOfERKNS1_3DXYE(ptr noundef nonnull align 8 dereferenceable(324) %6, ptr noundef nonnull align 4 dereferenceable(12) %29)
  %31 = getelementptr inbounds nuw %"class.cv::videostab::FastMarchingMethod", ptr %6, i32 0, i32 5
  %32 = load i32, ptr %4, align 4, !tbaa !8
  %33 = sext i32 %32 to i64
  %34 = call noundef nonnull align 4 dereferenceable(12) ptr @_ZNSt6vectorIN2cv9videostab18FastMarchingMethod3DXYESaIS3_EEixEm(ptr noundef nonnull align 8 dereferenceable(24) %31, i64 noundef %33) #3
  %35 = call noundef nonnull align 4 dereferenceable(4) ptr @_ZN2cv9videostab18FastMarchingMethod7indexOfERKNS1_3DXYE(ptr noundef nonnull align 8 dereferenceable(324) %6, ptr noundef nonnull align 4 dereferenceable(12) %34)
  call void @_ZSt4swapIiENSt9enable_ifIXsr6__and_ISt6__not_ISt15__is_tuple_likeIT_EESt21is_move_constructibleIS3_ESt18is_move_assignableIS3_EEE5valueEvE4typeERS3_SC_(ptr noundef nonnull align 4 dereferenceable(4) %30, ptr noundef nonnull align 4 dereferenceable(4) %35) #3
  %36 = getelementptr inbounds nuw %"class.cv::videostab::FastMarchingMethod", ptr %6, i32 0, i32 5
  %37 = load i32, ptr %5, align 4, !tbaa !8
  %38 = sext i32 %37 to i64
  %39 = call noundef nonnull align 4 dereferenceable(12) ptr @_ZNSt6vectorIN2cv9videostab18FastMarchingMethod3DXYESaIS3_EEixEm(ptr noundef nonnull align 8 dereferenceable(24) %36, i64 noundef %38) #3
  %40 = getelementptr inbounds nuw %"class.cv::videostab::FastMarchingMethod", ptr %6, i32 0, i32 5
  %41 = load i32, ptr %4, align 4, !tbaa !8
  %42 = sext i32 %41 to i64
  %43 = call noundef nonnull align 4 dereferenceable(12) ptr @_ZNSt6vectorIN2cv9videostab18FastMarchingMethod3DXYESaIS3_EEixEm(ptr noundef nonnull align 8 dereferenceable(24) %40, i64 noundef %42) #3
  call void @_ZSt4swapIN2cv9videostab18FastMarchingMethod3DXYEENSt9enable_ifIXsr6__and_ISt6__not_ISt15__is_tuple_likeIT_EESt21is_move_constructibleIS7_ESt18is_move_assignableIS7_EEE5valueEvE4typeERS7_SG_(ptr noundef nonnull align 4 dereferenceable(12) %39, ptr noundef nonnull align 4 dereferenceable(12) %43) #3
  %44 = load i32, ptr %5, align 4, !tbaa !8
  store i32 %44, ptr %4, align 4, !tbaa !8
  %45 = load i32, ptr %4, align 4, !tbaa !8
  %46 = sub nsw i32 %45, 1
  %47 = sdiv i32 %46, 2
  store i32 %47, ptr %5, align 4, !tbaa !8
  br label %10, !llvm.loop !41

48:                                               ; preds = %23
  call void @llvm.lifetime.end.p0(i64 4, ptr %5) #3
  ret void
}