; Function Attrs: mustprogress nofree norecurse nosync nounwind memory(readwrite, inaccessiblemem: none) uwtable
define void @_ZN2cv9videostab18FastMarchingMethod6heapUpEi(ptr noundef nonnull readonly align 8 captures(none) dereferenceable(324) %0, i32 noundef %1) local_unnamed_addr #5 align 2 {
  %3 = alloca %"struct.cv::videostab::FastMarchingMethod::DXY", align 4
  %4 = getelementptr inbounds nuw i8, ptr %0, i64 296
  %5 = icmp sgt i32 %1, 0
  br i1 %5, label %.lr.ph, label %.critedge

.lr.ph:                                           ; preds = %2
  %6 = getelementptr inbounds nuw i8, ptr %0, i64 216
  %7 = getelementptr inbounds nuw i8, ptr %0, i64 272
  br label %8

8:                                                ; preds = %.lr.ph, %17
  %.01013 = phi i32 [ %1, %.lr.ph ], [ %.014, %17 ]
  %.014.in = add nsw i32 %.01013, -1
  %.014 = sdiv i32 %.014.in, 2
  %9 = zext nneg i32 %.01013 to i64
  %10 = load ptr, ptr %4, align 8, !tbaa !35
  %11 = getelementptr inbounds nuw %"struct.cv::videostab::FastMarchingMethod::DXY", ptr %10, i64 %9
  %12 = sext i32 %.014 to i64
  %13 = getelementptr inbounds nuw %"struct.cv::videostab::FastMarchingMethod::DXY", ptr %10, i64 %12
  %14 = load float, ptr %11, align 4, !tbaa !36
  %15 = load float, ptr %13, align 4, !tbaa !36
  %16 = fcmp olt float %14, %15
  br i1 %16, label %17, label %.critedge

17:                                               ; preds = %8
  %18 = getelementptr inbounds nuw i8, ptr %13, i64 8
  %19 = load i32, ptr %18, align 4, !tbaa !38
  %20 = getelementptr inbounds nuw i8, ptr %13, i64 4
  %21 = load i32, ptr %20, align 4, !tbaa !39
  %22 = load ptr, ptr %6, align 8, !tbaa !28
  %23 = load ptr, ptr %7, align 8, !tbaa !29
  %24 = load i64, ptr %23, align 8, !tbaa !30
  %25 = sext i32 %19 to i64
  %26 = mul i64 %24, %25
  %27 = getelementptr inbounds nuw i8, ptr %22, i64 %26
  %28 = sext i32 %21 to i64
  %29 = getelementptr inbounds i32, ptr %27, i64 %28
  %30 = getelementptr inbounds nuw i8, ptr %11, i64 8
  %31 = load i32, ptr %30, align 4, !tbaa !38
  %32 = getelementptr inbounds nuw i8, ptr %11, i64 4
  %33 = load i32, ptr %32, align 4, !tbaa !39
  %34 = sext i32 %31 to i64
  %35 = mul i64 %24, %34
  %36 = getelementptr inbounds nuw i8, ptr %22, i64 %35
  %37 = sext i32 %33 to i64
  %38 = getelementptr inbounds i32, ptr %36, i64 %37
  %39 = load i32, ptr %29, align 4, !tbaa !34
  %40 = load i32, ptr %38, align 4, !tbaa !34
  store i32 %40, ptr %29, align 4, !tbaa !34
  store i32 %39, ptr %38, align 4, !tbaa !34
  call void @llvm.lifetime.start.p0(i64 12, ptr nonnull %3)
  call void @llvm.memcpy.p0.p0.i64(ptr noundef nonnull align 4 dereferenceable(12) %3, ptr noundef nonnull align 4 dereferenceable(12) %13, i64 12, i1 false), !tbaa.struct !40
  tail call void @llvm.memcpy.p0.p0.i64(ptr noundef nonnull align 4 dereferenceable(12) %13, ptr noundef nonnull align 4 dereferenceable(12) %11, i64 12, i1 false), !tbaa.struct !40
  call void @llvm.memcpy.p0.p0.i64(ptr noundef nonnull align 4 dereferenceable(12) %11, ptr noundef nonnull align 4 dereferenceable(12) %3, i64 12, i1 false), !tbaa.struct !40
  call void @llvm.lifetime.end.p0(i64 12, ptr nonnull %3)
  %41 = icmp sgt i32 %.01013, 2
  br i1 %41, label %8, label %.critedge, !llvm.loop !41

.critedge:                                        ; preds = %8, %17, %2
  ret void
}